target datalayout = "e-m:e-p270:32:32-p271:32:32-p272:64:64-i64:64-i128:128-f80:128-n8:16:32:64-S128"
target triple = "x86_64-pc-linux-gnu"

; Function Attrs: nounwind uwtable
define internal void @zend_sort_3(ptr noundef %0, ptr noundef %1, ptr noundef %2, ptr noundef %3, ptr noundef %4) #0 {
  %6 = alloca ptr, align 8
  %7 = alloca ptr, align 8
  %8 = alloca ptr, align 8
  %9 = alloca ptr, align 8
  %10 = alloca ptr, align 8
  store ptr %0, ptr %6, align 8
  store ptr %1, ptr %7, align 8
  store ptr %2, ptr %8, align 8
  store ptr %3, ptr %9, align 8
  store ptr %4, ptr %10, align 8
  %11 = load ptr, ptr %9, align 8
  %12 = load ptr, ptr %6, align 8
  %13 = load ptr, ptr %7, align 8
  %14 = call i32 %11(ptr noundef %12, ptr noundef %13)
  %15 = icmp sgt i32 %14, 0
  br i1 %15, label %37, label %16

16:                                               ; preds = %5
  %17 = load ptr, ptr %9, align 8
  %18 = load ptr, ptr %7, align 8
  %19 = load ptr, ptr %8, align 8
  %20 = call i32 %17(ptr noundef %18, ptr noundef %19)
  %21 = icmp sgt i32 %20, 0
  br i1 %21, label %23, label %22

22:                                               ; preds = %16
  br label %60

23:                                               ; preds = %16
  %24 = load ptr, ptr %10, align 8
  %25 = load ptr, ptr %7, align 8
  %26 = load ptr, ptr %8, align 8
  call void %24(ptr noundef %25, ptr noundef %26)
  %27 = load ptr, ptr %9, align 8
  %28 = load ptr, ptr %6, align 8
  %29 = load ptr, ptr %7, align 8
  %30 = call i32 %27(ptr noundef %28, ptr noundef %29)
  %31 = icmp sgt i32 %30, 0
  br i1 %31, label %32, label %36

32:                                               ; preds = %23
  %33 = load ptr, ptr %10, align 8
  %34 = load ptr, ptr %6, align 8
  %35 = load ptr, ptr %7, align 8
  call void %33(ptr noundef %34, ptr noundef %35)
  br label %36

36:                                               ; preds = %32, %23
  br label %60

37:                                               ; preds = %5
  %38 = load ptr, ptr %9, align 8
  %39 = load ptr, ptr %8, align 8
  %40 = load ptr, ptr %7, align 8
  %41 = call i32 %38(ptr noundef %39, ptr noundef %40)
  %42 = icmp sgt i32 %41, 0
  br i1 %42, label %47, label %43

43:                                               ; preds = %37
  %44 = load ptr, ptr %10, align 8
  %45 = load ptr, ptr %6, align 8
  %46 = load ptr, ptr %8, align 8
  call void %44(ptr noundef %45, ptr noundef %46)
  br label %60

47:                                               ; preds = %37
  %48 = load ptr, ptr %10, align 8
  %49 = load ptr, ptr %6, align 8
  %50 = load ptr, ptr %7, align 8
  call void %48(ptr noundef %49, ptr noundef %50)
  %51 = load ptr, ptr %9, align 8
  %52 = load ptr, ptr %7, align 8
  %53 = load ptr, ptr %8, align 8
  %54 = call i32 %51(ptr noundef %52, ptr noundef %53)
  %55 = icmp sgt i32 %54, 0
  br i1 %55, label %56, label %60

56:                                               ; preds = %47
  %57 = load ptr, ptr %10, align 8
  %58 = load ptr, ptr %7, align 8
  %59 = load ptr, ptr %8, align 8
  call void %57(ptr noundef %58, ptr noundef %59)
  br label %60

60:                                               ; preds = %56, %47, %43, %36, %22
  ret void
}

; Function Attrs: nounwind uwtable
define internal void @zend_sort_5(ptr noundef %0, ptr noundef %1, ptr noundef %2, ptr noundef %3, ptr noundef %4, ptr noundef %5, ptr noundef %6) #0 {
  %8 = alloca ptr, align 8
  %9 = alloca ptr, align 8
  %10 = alloca ptr, align 8
  %11 = alloca ptr, align 8
  %12 = alloca ptr, align 8
  %13 = alloca ptr, align 8
  %14 = alloca ptr, align 8
  store ptr %0, ptr %8, align 8
  store ptr %1, ptr %9, align 8
  store ptr %2, ptr %10, align 8
  store ptr %3, ptr %11, align 8
  store ptr %4, ptr %12, align 8
  store ptr %5, ptr %13, align 8
  store ptr %6, ptr %14, align 8
  %15 = load ptr, ptr %8, align 8
  %16 = load ptr, ptr %9, align 8
  %17 = load ptr, ptr %10, align 8
  %18 = load ptr, ptr %11, align 8
  %19 = load ptr, ptr %13, align 8
  %20 = load ptr, ptr %14, align 8
  call void @zend_sort_4(ptr noundef %15, ptr noundef %16, ptr noundef %17, ptr noundef %18, ptr noundef %19, ptr noundef %20)
  %21 = load ptr, ptr %13, align 8
  %22 = load ptr, ptr %11, align 8
  %23 = load ptr, ptr %12, align 8
  %24 = call i32 %21(ptr noundef %22, ptr noundef %23)
  %25 = icmp sgt i32 %24, 0
  br i1 %25, label %26, label %60

26:                                               ; preds = %7
  %27 = load ptr, ptr %14, align 8
  %28 = load ptr, ptr %11, align 8
  %29 = load ptr, ptr %12, align 8
  call void %27(ptr noundef %28, ptr noundef %29)
  %30 = load ptr, ptr %13, align 8
  %31 = load ptr, ptr %10, align 8
  %32 = load ptr, ptr %11, align 8
  %33 = call i32 %30(ptr noundef %31, ptr noundef %32)
  %34 = icmp sgt i32 %33, 0
  br i1 %34, label %35, label %59

35:                                               ; preds = %26
  %36 = load ptr, ptr %14, align 8
  %37 = load ptr, ptr %10, align 8
  %38 = load ptr, ptr %11, align 8
  call void %36(ptr noundef %37, ptr noundef %38)
  %39 = load ptr, ptr %13, align 8
  %40 = load ptr, ptr %9, align 8
  %41 = load ptr, ptr %10, align 8
  %42 = call i32 %39(ptr noundef %40, ptr noundef %41)
  %43 = icmp sgt i32 %42, 0
  br i1 %43, label %44, label %58

44:                                               ; preds = %35
  %45 = load ptr, ptr %14, align 8
  %46 = load ptr, ptr %9, align 8
  %47 = load ptr, ptr %10, align 8
  call void %45(ptr noundef %46, ptr noundef %47)
  %48 = load ptr, ptr %13, align 8
  %49 = load ptr, ptr %8, align 8
  %50 = load ptr, ptr %9, align 8
  %51 = call i32 %48(ptr noundef %49, ptr noundef %50)
  %52 = icmp sgt i32 %51, 0
  br i1 %52, label %53, label %57

53:                                               ; preds = %44
  %54 = load ptr, ptr %14, align 8
  %55 = load ptr, ptr %8, align 8
  %56 = load ptr, ptr %9, align 8
  call void %54(ptr noundef %55, ptr noundef %56)
  br label %57

57:                                               ; preds = %53, %44
  br label %58

58:                                               ; preds = %57, %35
  br label %59

59:                                               ; preds = %58, %26
  br label %60

60:                                               ; preds = %59, %7
  ret void
}

; Function Attrs: nounwind uwtable
define void @zend_sort(ptr noundef %0, i64 noundef %1, i64 noundef %2, ptr noundef %3, ptr noundef %4) #0 {
  %6 = alloca ptr, align 8
  %7 = alloca i64, align 8
  %8 = alloca i64, align 8
  %9 = alloca ptr, align 8
  %10 = alloca ptr, align 8
  %11 = alloca ptr, align 8
  %12 = alloca ptr, align 8
  %13 = alloca ptr, align 8
  %14 = alloca ptr, align 8
  %15 = alloca i64, align 8
  %16 = alloca ptr, align 8
  %17 = alloca i64, align 8
  store ptr %0, ptr %6, align 8
  store i64 %1, ptr %7, align 8
  store i64 %2, ptr %8, align 8
  store ptr %3, ptr %9, align 8
  store ptr %4, ptr %10, align 8
  br label %18

18:                                               ; preds = %225, %5
  %19 = load i64, ptr %7, align 8
  %20 = icmp ule i64 %19, 16
  br i1 %20, label %21, label %27

21:                                               ; preds = %18
  %22 = load ptr, ptr %6, align 8
  %23 = load i64, ptr %7, align 8
  %24 = load i64, ptr %8, align 8
  %25 = load ptr, ptr %9, align 8
  %26 = load ptr, ptr %10, align 8
  call void @zend_insert_sort(ptr noundef %22, i64 noundef %23, i64 noundef %24, ptr noundef %25, ptr noundef %26)
  ret void

27:                                               ; preds = %18
  %28 = load ptr, ptr %6, align 8
  store ptr %28, ptr %13, align 8
  %29 = load ptr, ptr %13, align 8
  %30 = load i64, ptr %7, align 8
  %31 = load i64, ptr %8, align 8
  %32 = mul i64 %30, %31
  %33 = getelementptr inbounds i8, ptr %29, i64 %32
  store ptr %33, ptr %14, align 8
  %34 = load i64, ptr %7, align 8
  %35 = lshr i64 %34, 1
  store i64 %35, ptr %15, align 8
  %36 = load ptr, ptr %13, align 8
  %37 = load i64, ptr %15, align 8
  %38 = load i64, ptr %8, align 8
  %39 = mul i64 %37, %38
  %40 = getelementptr inbounds i8, ptr %36, i64 %39
  store ptr %40, ptr %16, align 8
  %41 = load i64, ptr %7, align 8
  %42 = lshr i64 %41, 10
  %43 = icmp ne i64 %42, 0
  br i1 %43, label %44, label %63

44:                                               ; preds = %27
  %45 = load i64, ptr %15, align 8
  %46 = lshr i64 %45, 1
  %47 = load i64, ptr %8, align 8
  %48 = mul i64 %46, %47
  store i64 %48, ptr %17, align 8
  %49 = load ptr, ptr %13, align 8
  %50 = load ptr, ptr %13, align 8
  %51 = load i64, ptr %17, align 8
  %52 = getelementptr inbounds i8, ptr %50, i64 %51
  %53 = load ptr, ptr %16, align 8
  %54 = load ptr, ptr %16, align 8
  %55 = load i64, ptr %17, align 8
  %56 = getelementptr inbounds i8, ptr %54, i64 %55
  %57 = load ptr, ptr %14, align 8
  %58 = load i64, ptr %8, align 8
  %59 = sub i64 0, %58
  %60 = getelementptr inbounds i8, ptr %57, i64 %59
  %61 = load ptr, ptr %9, align 8
  %62 = load ptr, ptr %10, align 8
  call void @zend_sort_5(ptr noundef %49, ptr noundef %52, ptr noundef %53, ptr noundef %56, ptr noundef %60, ptr noundef %61, ptr noundef %62)
  br label %72

63:                                               ; preds = %27
  %64 = load ptr, ptr %13, align 8
  %65 = load ptr, ptr %16, align 8
  %66 = load ptr, ptr %14, align 8
  %67 = load i64, ptr %8, align 8
  %68 = sub i64 0, %67
  %69 = getelementptr inbounds i8, ptr %66, i64 %68
  %70 = load ptr, ptr %9, align 8
  %71 = load ptr, ptr %10, align 8
  call void @zend_sort_3(ptr noundef %64, ptr noundef %65, ptr noundef %69, ptr noundef %70, ptr noundef %71)
  br label %72

72:                                               ; preds = %63, %44
  %73 = load ptr, ptr %10, align 8
  %74 = load ptr, ptr %13, align 8
  %75 = load i64, ptr %8, align 8
  %76 = getelementptr inbounds i8, ptr %74, i64 %75
  %77 = load ptr, ptr %16, align 8
  call void %73(ptr noundef %76, ptr noundef %77)
  %78 = load ptr, ptr %13, align 8
  %79 = load i64, ptr %8, align 8
  %80 = getelementptr inbounds i8, ptr %78, i64 %79
  store ptr %80, ptr %16, align 8
  %81 = load ptr, ptr %16, align 8
  %82 = load i64, ptr %8, align 8
  %83 = getelementptr inbounds i8, ptr %81, i64 %82
  store ptr %83, ptr %11, align 8
  %84 = load ptr, ptr %14, align 8
  %85 = load i64, ptr %8, align 8
  %86 = sub i64 0, %85
  %87 = getelementptr inbounds i8, ptr %84, i64 %86
  store ptr %87, ptr %12, align 8
  br label %88

88:                                               ; preds = %161, %72
  br label %89

89:                                               ; preds = %108, %88
  %90 = load ptr, ptr %9, align 8
  %91 = load ptr, ptr %16, align 8
  %92 = load ptr, ptr %11, align 8
  %93 = call i32 %90(ptr noundef %91, ptr noundef %92)
  %94 = icmp sgt i32 %93, 0
  br i1 %94, label %95, label %109

95:                                               ; preds = %89
  %96 = load i64, ptr %8, align 8
  %97 = load ptr, ptr %11, align 8
  %98 = getelementptr inbounds i8, ptr %97, i64 %96
  store ptr %98, ptr %11, align 8
  %99 = load ptr, ptr %11, align 8
  %100 = load ptr, ptr %12, align 8
  %101 = icmp eq ptr %99, %100
  %102 = xor i1 %101, true
  %103 = xor i1 %102, true
  %104 = zext i1 %103 to i32
  %105 = sext i32 %104 to i64
  %106 = icmp ne i64 %105, 0
  br i1 %106, label %107, label %108

107:                                              ; preds = %95
  br label %162

108:                                              ; preds = %95
  br label %89

109:                                              ; preds = %89
  %110 = load i64, ptr %8, align 8
  %111 = load ptr, ptr %12, align 8
  %112 = sub i64 0, %110
  %113 = getelementptr inbounds i8, ptr %111, i64 %112
  store ptr %113, ptr %12, align 8
  %114 = load ptr, ptr %12, align 8
  %115 = load ptr, ptr %11, align 8
  %116 = icmp eq ptr %114, %115
  %117 = xor i1 %116, true
  %118 = xor i1 %117, true
  %119 = zext i1 %118 to i32
  %120 = sext i32 %119 to i64
  %121 = icmp ne i64 %120, 0
  br i1 %121, label %122, label %123

122:                                              ; preds = %109
  br label %162

123:                                              ; preds = %109
  br label %124

124:                                              ; preds = %144, %123
  %125 = load ptr, ptr %9, align 8
  %126 = load ptr, ptr %12, align 8
  %127 = load ptr, ptr %16, align 8
  %128 = call i32 %125(ptr noundef %126, ptr noundef %127)
  %129 = icmp sgt i32 %128, 0
  br i1 %129, label %130, label %145

130:                                              ; preds = %124
  %131 = load i64, ptr %8, align 8
  %132 = load ptr, ptr %12, align 8
  %133 = sub i64 0, %131
  %134 = getelementptr inbounds i8, ptr %132, i64 %133
  store ptr %134, ptr %12, align 8
  %135 = load ptr, ptr %12, align 8
  %136 = load ptr, ptr %11, align 8
  %137 = icmp eq ptr %135, %136
  %138 = xor i1 %137, true
  %139 = xor i1 %138, true
  %140 = zext i1 %139 to i32
  %141 = sext i32 %140 to i64
  %142 = icmp ne i64 %141, 0
  br i1 %142, label %143, label %144

143:                                              ; preds = %130
  br label %162

144:                                              ; preds = %130
  br label %124

145:                                              ; preds = %124
  %146 = load ptr, ptr %10, align 8
  %147 = load ptr, ptr %11, align 8
  %148 = load ptr, ptr %12, align 8
  call void %146(ptr noundef %147, ptr noundef %148)
  %149 = load i64, ptr %8, align 8
  %150 = load ptr, ptr %11, align 8
  %151 = getelementptr inbounds i8, ptr %150, i64 %149
  store ptr %151, ptr %11, align 8
  %152 = load ptr, ptr %11, align 8
  %153 = load ptr, ptr %12, align 8
  %154 = icmp eq ptr %152, %153
  %155 = xor i1 %154, true
  %156 = xor i1 %155, true
  %157 = zext i1 %156 to i32
  %158 = sext i32 %157 to i64
  %159 = icmp ne i64 %158, 0
  br i1 %159, label %160, label %161

160:                                              ; preds = %145
  br label %162

161:                                              ; preds = %145
  br label %88

162:                                              ; preds = %160, %143, %122, %107
  %163 = load ptr, ptr %10, align 8
  %164 = load ptr, ptr %16, align 8
  %165 = load ptr, ptr %11, align 8
  %166 = load i64, ptr %8, align 8
  %167 = sub i64 0, %166
  %168 = getelementptr inbounds i8, ptr %165, i64 %167
  call void %163(ptr noundef %164, ptr noundef %168)
  %169 = load ptr, ptr %11, align 8
  %170 = load i64, ptr %8, align 8
  %171 = sub i64 0, %170
  %172 = getelementptr inbounds i8, ptr %169, i64 %171
  %173 = load ptr, ptr %13, align 8
  %174 = ptrtoint ptr %172 to i64
  %175 = ptrtoint ptr %173 to i64
  %176 = sub i64 %174, %175
  %177 = load ptr, ptr %14, align 8
  %178 = load ptr, ptr %11, align 8
  %179 = ptrtoint ptr %177 to i64
  %180 = ptrtoint ptr %178 to i64
  %181 = sub i64 %179, %180
  %182 = icmp slt i64 %176, %181
  br i1 %182, label %183, label %204

183:                                              ; preds = %162
  %184 = load ptr, ptr %13, align 8
  %185 = load ptr, ptr %11, align 8
  %186 = load ptr, ptr %13, align 8
  %187 = ptrtoint ptr %185 to i64
  %188 = ptrtoint ptr %186 to i64
  %189 = sub i64 %187, %188
  %190 = load i64, ptr %8, align 8
  %191 = udiv i64 %189, %190
  %192 = sub i64 %191, 1
  %193 = load i64, ptr %8, align 8
  %194 = load ptr, ptr %9, align 8
  %195 = load ptr, ptr %10, align 8
  call void @zend_sort(ptr noundef %184, i64 noundef %192, i64 noundef %193, ptr noundef %194, ptr noundef %195)
  %196 = load ptr, ptr %11, align 8
  store ptr %196, ptr %6, align 8
  %197 = load ptr, ptr %14, align 8
  %198 = load ptr, ptr %11, align 8
  %199 = ptrtoint ptr %197 to i64
  %200 = ptrtoint ptr %198 to i64
  %201 = sub i64 %199, %200
  %202 = load i64, ptr %8, align 8
  %203 = udiv i64 %201, %202
  store i64 %203, ptr %7, align 8
  br label %224

204:                                              ; preds = %162
  %205 = load ptr, ptr %11, align 8
  %206 = load ptr, ptr %14, align 8
  %207 = load ptr, ptr %11, align 8
  %208 = ptrtoint ptr %206 to i64
  %209 = ptrtoint ptr %207 to i64
  %210 = sub i64 %208, %209
  %211 = load i64, ptr %8, align 8
  %212 = udiv i64 %210, %211
  %213 = load i64, ptr %8, align 8
  %214 = load ptr, ptr %9, align 8
  %215 = load ptr, ptr %10, align 8
  call void @zend_sort(ptr noundef %205, i64 noundef %212, i64 noundef %213, ptr noundef %214, ptr noundef %215)
  %216 = load ptr, ptr %11, align 8
  %217 = load ptr, ptr %13, align 8
  %218 = ptrtoint ptr %216 to i64
  %219 = ptrtoint ptr %217 to i64
  %220 = sub i64 %218, %219
  %221 = load i64, ptr %8, align 8
  %222 = udiv i64 %220, %221
  %223 = sub i64 %222, 1
  store i64 %223, ptr %7, align 8
  br label %224

224:                                              ; preds = %204, %183
  br label %225

225:                                              ; preds = %224
  br label %18
}