; Function Attrs: nounwind uwtable
define void @zend_sort(ptr noundef %0, i64 noundef %1, i64 noundef %2, ptr noundef %3, ptr noundef %4) local_unnamed_addr #0 {
  %6 = icmp ult i64 %1, 17
  br i1 %6, label %._crit_edge, label %.lr.ph

.lr.ph:                                           ; preds = %5
  %7 = sub i64 0, %2
  br label %8

._crit_edge:                                      ; preds = %90, %5
  %.097.lcssa = phi i64 [ %1, %5 ], [ %.198, %90 ]
  %.0.lcssa = phi ptr [ %0, %5 ], [ %.1, %90 ]
  tail call void @zend_insert_sort(ptr noundef %.0.lcssa, i64 noundef %.097.lcssa, i64 noundef %2, ptr noundef %3, ptr noundef %4)
  ret void

8:                                                ; preds = %.lr.ph, %90
  %.0117 = phi ptr [ %0, %.lr.ph ], [ %.1, %90 ]
  %.097116 = phi i64 [ %1, %.lr.ph ], [ %.198, %90 ]
  %9 = mul i64 %.097116, %2
  %10 = getelementptr inbounds i8, ptr %.0117, i64 %9
  %11 = lshr i64 %.097116, 1
  %12 = mul i64 %11, %2
  %13 = getelementptr inbounds i8, ptr %.0117, i64 %12
  %.not = icmp ult i64 %.097116, 1024
  br i1 %.not, label %32, label %14

14:                                               ; preds = %8
  %15 = lshr i64 %.097116, 2
  %16 = mul i64 %15, %2
  %17 = getelementptr inbounds i8, ptr %.0117, i64 %16
  %18 = getelementptr inbounds i8, ptr %13, i64 %16
  %19 = getelementptr inbounds i8, ptr %10, i64 %7
  tail call fastcc void @zend_sort_4(ptr noundef %.0117, ptr noundef %17, ptr noundef %13, ptr noundef %18, ptr noundef %3, ptr noundef %4)
  %20 = tail call i32 %3(ptr noundef %18, ptr noundef %19) #1
  %21 = icmp sgt i32 %20, 0
  br i1 %21, label %22, label %zend_sort_5.exit

22:                                               ; preds = %14
  tail call void %4(ptr noundef %18, ptr noundef %19) #1
  %23 = tail call i32 %3(ptr noundef %13, ptr noundef %18) #1
  %24 = icmp sgt i32 %23, 0
  br i1 %24, label %25, label %zend_sort_5.exit

25:                                               ; preds = %22
  tail call void %4(ptr noundef %13, ptr noundef %18) #1
  %26 = tail call i32 %3(ptr noundef %17, ptr noundef %13) #1
  %27 = icmp sgt i32 %26, 0
  br i1 %27, label %28, label %zend_sort_5.exit

28:                                               ; preds = %25
  tail call void %4(ptr noundef %17, ptr noundef %13) #1
  %29 = tail call i32 %3(ptr noundef %.0117, ptr noundef %17) #1
  %30 = icmp sgt i32 %29, 0
  br i1 %30, label %31, label %zend_sort_5.exit

31:                                               ; preds = %28
  tail call void %4(ptr noundef %.0117, ptr noundef %17) #1
  br label %zend_sort_5.exit

32:                                               ; preds = %8
  %33 = getelementptr inbounds i8, ptr %10, i64 %7
  %34 = tail call i32 %3(ptr noundef %.0117, ptr noundef %13) #1
  %35 = icmp sgt i32 %34, 0
  br i1 %35, label %43, label %36

36:                                               ; preds = %32
  %37 = tail call i32 %3(ptr noundef %13, ptr noundef %33) #1
  %38 = icmp sgt i32 %37, 0
  br i1 %38, label %39, label %zend_sort_5.exit

39:                                               ; preds = %36
  tail call void %4(ptr noundef %13, ptr noundef %33) #1
  %40 = tail call i32 %3(ptr noundef %.0117, ptr noundef %13) #1
  %41 = icmp sgt i32 %40, 0
  br i1 %41, label %42, label %zend_sort_5.exit

42:                                               ; preds = %39
  tail call void %4(ptr noundef %.0117, ptr noundef %13) #1
  br label %zend_sort_5.exit

43:                                               ; preds = %32
  %44 = tail call i32 %3(ptr noundef %33, ptr noundef %13) #1
  %45 = icmp sgt i32 %44, 0
  br i1 %45, label %47, label %46

46:                                               ; preds = %43
  tail call void %4(ptr noundef %.0117, ptr noundef %33) #1
  br label %zend_sort_5.exit

47:                                               ; preds = %43
  tail call void %4(ptr noundef %.0117, ptr noundef %13) #1
  %48 = tail call i32 %3(ptr noundef %13, ptr noundef %33) #1
  %49 = icmp sgt i32 %48, 0
  br i1 %49, label %50, label %zend_sort_5.exit

50:                                               ; preds = %47
  tail call void %4(ptr noundef %13, ptr noundef %33) #1
  br label %zend_sort_5.exit

zend_sort_5.exit:                                 ; preds = %50, %47, %46, %42, %39, %36, %31, %28, %25, %22, %14
  %51 = getelementptr inbounds i8, ptr %.0117, i64 %2
  tail call void %4(ptr noundef %51, ptr noundef %13) #1
  %52 = getelementptr inbounds i8, ptr %51, i64 %2
  %53 = getelementptr inbounds i8, ptr %10, i64 %7
  br label %54

54:                                               ; preds = %69, %zend_sort_5.exit
  %.0101 = phi ptr [ %53, %zend_sort_5.exit ], [ %.1102, %69 ]
  %.099 = phi ptr [ %52, %zend_sort_5.exit ], [ %70, %69 ]
  br label %55

55:                                               ; preds = %58, %54
  %.1100 = phi ptr [ %.099, %54 ], [ %59, %58 ]
  %56 = tail call i32 %3(ptr noundef %51, ptr noundef %.1100) #1
  %57 = icmp sgt i32 %56, 0
  br i1 %57, label %58, label %61

58:                                               ; preds = %55
  %59 = getelementptr inbounds i8, ptr %.1100, i64 %2
  %60 = icmp eq ptr %59, %.0101
  br i1 %60, label %.loopexit, label %55

61:                                               ; preds = %55
  %62 = getelementptr inbounds i8, ptr %.0101, i64 %7
  %63 = icmp eq ptr %62, %.1100
  br i1 %63, label %.loopexit, label %.preheader

.preheader:                                       ; preds = %61, %66
  %.1102 = phi ptr [ %67, %66 ], [ %62, %61 ]
  %64 = tail call i32 %3(ptr noundef %.1102, ptr noundef %51) #1
  %65 = icmp sgt i32 %64, 0
  br i1 %65, label %66, label %69

66:                                               ; preds = %.preheader
  %67 = getelementptr inbounds i8, ptr %.1102, i64 %7
  %68 = icmp eq ptr %67, %.1100
  br i1 %68, label %.loopexit, label %.preheader

69:                                               ; preds = %.preheader
  tail call void %4(ptr noundef %.1100, ptr noundef %.1102) #1
  %70 = getelementptr inbounds i8, ptr %.1100, i64 %2
  %71 = icmp eq ptr %70, %.1102
  br i1 %71, label %.loopexit, label %54

.loopexit:                                        ; preds = %69, %61, %58, %66
  %.2 = phi ptr [ %.1100, %66 ], [ %.0101, %58 ], [ %.1102, %69 ], [ %.1100, %61 ]
  %72 = getelementptr inbounds i8, ptr %.2, i64 %7
  tail call void %4(ptr noundef %51, ptr noundef %72) #1
  %73 = ptrtoint ptr %72 to i64
  %74 = ptrtoint ptr %.0117 to i64
  %75 = sub i64 %73, %74
  %76 = ptrtoint ptr %10 to i64
  %77 = ptrtoint ptr %.2 to i64
  %78 = sub i64 %76, %77
  %79 = icmp slt i64 %75, %78
  br i1 %79, label %80, label %85

80:                                               ; preds = %.loopexit
  %81 = sub i64 %77, %74
  %82 = udiv i64 %81, %2
  %83 = add i64 %82, -1
  tail call void @zend_sort(ptr noundef %.0117, i64 noundef %83, i64 noundef %2, ptr noundef %3, ptr noundef %4)
  %84 = udiv i64 %78, %2
  br label %90

85:                                               ; preds = %.loopexit
  %86 = udiv i64 %78, %2
  tail call void @zend_sort(ptr noundef %.2, i64 noundef %86, i64 noundef %2, ptr noundef %3, ptr noundef %4)
  %87 = sub i64 %77, %74
  %88 = udiv i64 %87, %2
  %89 = add i64 %88, -1
  br label %90

90:                                               ; preds = %80, %85
  %.198 = phi i64 [ %84, %80 ], [ %89, %85 ]
  %.1 = phi ptr [ %.2, %80 ], [ %.0117, %85 ]
  %91 = icmp ult i64 %.198, 17
  br i1 %91, label %._crit_edge, label %8
}